; Function Attrs: nounwind uwtable
define noundef ptr @Amap_ManSetupObj(ptr noundef readonly captures(none) %0) local_unnamed_addr #0 {
  %2 = getelementptr inbounds nuw i8, ptr %0, i64 56
  %3 = load ptr, ptr %2, align 8, !tbaa !3
  %4 = tail call ptr @Aig_MmFixedEntryFetch(ptr noundef %3) #11
  tail call void @llvm.memset.p0.i64(ptr noundef nonnull align 8 dereferenceable(96) %4, i8 0, i64 96, i1 false)
  %5 = getelementptr inbounds nuw i8, ptr %4, i64 52
  store i32 1, ptr %5, align 4, !tbaa !20
  %6 = getelementptr inbounds nuw i8, ptr %0, i64 48
  %7 = load ptr, ptr %6, align 8, !tbaa !21
  %8 = getelementptr i8, ptr %7, i64 4
  %.val = load i32, ptr %8, align 4, !tbaa !22
  %9 = shl i32 %.val, 3
  %10 = zext i32 %9 to i64
  store i64 %10, ptr %4, align 8
  %11 = load ptr, ptr %6, align 8, !tbaa !21
  %12 = getelementptr inbounds nuw i8, ptr %11, i64 4
  %13 = load i32, ptr %12, align 4, !tbaa !22
  %14 = load i32, ptr %11, align 8, !tbaa !24
  %15 = icmp eq i32 %13, %14
  br i1 %15, label %16, label %.Vec_PtrGrow.exit11_crit_edge.i

.Vec_PtrGrow.exit11_crit_edge.i:                  ; preds = %1
  %.phi.trans.insert.i = getelementptr inbounds nuw i8, ptr %11, i64 8
  %.pre.i = load ptr, ptr %.phi.trans.insert.i, align 8, !tbaa !25
  br label %Vec_PtrPush.exit

16:                                               ; preds = %1
  %17 = icmp slt i32 %13, 16
  br i1 %17, label %18, label %26

18:                                               ; preds = %16
  %19 = getelementptr inbounds nuw i8, ptr %11, i64 8
  %20 = load ptr, ptr %19, align 8, !tbaa !25
  %.not9.i.i = icmp eq ptr %20, null
  br i1 %.not9.i.i, label %23, label %21

21:                                               ; preds = %18
  %22 = tail call dereferenceable_or_null(128) ptr @realloc(ptr noundef nonnull %20, i64 noundef 128) #12
  br label %Vec_PtrGrow.exit.i

23:                                               ; preds = %18
  %24 = tail call noalias dereferenceable_or_null(128) ptr @malloc(i64 noundef 128) #13
  br label %Vec_PtrGrow.exit.i

Vec_PtrGrow.exit.i:                               ; preds = %23, %21
  %25 = phi ptr [ %22, %21 ], [ %24, %23 ]
  store ptr %25, ptr %19, align 8, !tbaa !25
  store i32 16, ptr %11, align 8, !tbaa !24
  br label %Vec_PtrPush.exit

26:                                               ; preds = %16
  %27 = shl nuw nsw i32 %13, 1
  %28 = getelementptr inbounds nuw i8, ptr %11, i64 8
  %29 = load ptr, ptr %28, align 8, !tbaa !25
  %.not9.i10.i = icmp eq ptr %29, null
  %30 = zext nneg i32 %27 to i64
  %31 = shl nuw nsw i64 %30, 3
  br i1 %.not9.i10.i, label %34, label %32

32:                                               ; preds = %26
  %33 = tail call ptr @realloc(ptr noundef nonnull %29, i64 noundef %31) #12
  br label %36

34:                                               ; preds = %26
  %35 = tail call noalias ptr @malloc(i64 noundef %31) #13
  br label %36

36:                                               ; preds = %34, %32
  %37 = phi ptr [ %33, %32 ], [ %35, %34 ]
  store ptr %37, ptr %28, align 8, !tbaa !25
  store i32 %27, ptr %11, align 8, !tbaa !24
  br label %Vec_PtrPush.exit

Vec_PtrPush.exit:                                 ; preds = %.Vec_PtrGrow.exit11_crit_edge.i, %Vec_PtrGrow.exit.i, %36
  %38 = phi ptr [ %.pre.i, %.Vec_PtrGrow.exit11_crit_edge.i ], [ %37, %36 ], [ %25, %Vec_PtrGrow.exit.i ]
  %39 = load i32, ptr %12, align 4, !tbaa !22
  %40 = add nsw i32 %39, 1
  store i32 %40, ptr %12, align 4, !tbaa !22
  %41 = sext i32 %39 to i64
  %42 = getelementptr inbounds ptr, ptr %38, i64 %41
  store ptr %4, ptr %42, align 8, !tbaa !26
  ret ptr %4
}